; Function Attrs: mustprogress nounwind uwtable
define hidden void @_ZN13InstanceKlass24clean_dependency_contextEv(ptr noundef nonnull align 8 dereferenceable(464) %0) local_unnamed_addr #0 align 2 {
  %2 = alloca %class.DependencyContext, align 8
  %3 = getelementptr inbounds i8, ptr %0, i64 344
  %4 = getelementptr inbounds i8, ptr %0, i64 352
  store ptr %3, ptr %2, align 8
  %5 = getelementptr inbounds i8, ptr %2, i64 8
  store ptr %4, ptr %5, align 8
  call void @_ZN17DependencyContext26clean_unloading_dependentsEv(ptr noundef nonnull align 8 dereferenceable(16) %2) #26
  ret void
}